target datalayout = "e-m:e-p270:32:32-p271:32:32-p272:64:64-i64:64-i128:128-f80:128-n8:16:32:64-S128"
target triple = "x86_64-pc-linux-gnu"

%class.LIR_Opr = type { i64 }
%class.Canonicalizer = type <{ %class.InstructionVisitor, ptr, ptr, i32, [4 x i8] }>
%class.InstructionVisitor = type { ptr }
%class.Instruction = type { ptr, i32, i32, i32, ptr, ptr, ptr, %class.LIR_Opr, i32, ptr, ptr, ptr, ptr }
%class.ciMetadata = type { %class.ciBaseObject.base, ptr }
%class.ciBaseObject.base = type <{ ptr, i32 }>
%class.StateSplit = type { %class.Instruction, ptr }
%class.TypeCheck = type <{ %class.StateSplit, ptr, ptr, ptr, i32, [4 x i8] }>

; Function Attrs: mustprogress nounwind uwtable
define linkonce_odr hidden noundef ptr @_ZNK13Canonicalizer9canonicalEv(ptr noundef nonnull align 8 dereferenceable(28) %0) #1 comdat align 2 {
  %2 = alloca ptr, align 8
  store ptr %0, ptr %2, align 8
  %3 = load ptr, ptr %2, align 8
  %4 = getelementptr inbounds %class.Canonicalizer, ptr %3, i32 0, i32 2
  %5 = load ptr, ptr %4, align 8
  ret ptr %5
}

; Function Attrs: mustprogress nounwind uwtable
define linkonce_odr hidden noundef ptr @_ZNK11Instruction4typeEv(ptr noundef nonnull align 8 dereferenceable(96) %0) #1 comdat align 2 {
  %2 = alloca ptr, align 8
  store ptr %0, ptr %2, align 8
  %3 = load ptr, ptr %2, align 8
  %4 = getelementptr inbounds %class.Instruction, ptr %3, i32 0, i32 4
  %5 = load ptr, ptr %4, align 8
  ret ptr %5
}

; Function Attrs: mustprogress nounwind uwtable
define hidden void @_ZN13Canonicalizer13set_canonicalEP11Instruction(ptr noundef nonnull align 8 dereferenceable(28) %0, ptr noundef %1) #1 align 2 {
  %3 = alloca ptr, align 8
  %4 = alloca ptr, align 8
  store ptr %0, ptr %3, align 8
  store ptr %1, ptr %4, align 8
  %5 = load ptr, ptr %3, align 8
  %6 = call noundef ptr @_ZNK13Canonicalizer9canonicalEv(ptr noundef nonnull align 8 dereferenceable(28) %5)
  %7 = load ptr, ptr %4, align 8
  %8 = icmp ne ptr %6, %7
  br i1 %8, label %9, label %12

9:                                                ; preds = %2
  %10 = load ptr, ptr %4, align 8
  %11 = getelementptr inbounds %class.Canonicalizer, ptr %5, i32 0, i32 2
  store ptr %10, ptr %11, align 8
  br label %12

12:                                               ; preds = %9, %2
  ret void
}

; Function Attrs: mustprogress nounwind uwtable
define linkonce_odr hidden noundef ptr @_ZN10ciMetadata17as_instance_klassEv(ptr noundef nonnull align 8 dereferenceable(24) %0) #1 comdat align 2 {
  %2 = alloca ptr, align 8
  store ptr %0, ptr %2, align 8
  %3 = load ptr, ptr %2, align 8
  ret ptr %3
}

; Function Attrs: mustprogress nounwind uwtable
define linkonce_odr hidden noundef ptr @_ZNK9TypeCheck3objEv(ptr noundef nonnull align 8 dereferenceable(132) %0) #1 comdat align 2 {
  %2 = alloca ptr, align 8
  store ptr %0, ptr %2, align 8
  %3 = load ptr, ptr %2, align 8
  %4 = getelementptr inbounds %class.TypeCheck, ptr %3, i32 0, i32 2
  %5 = load ptr, ptr %4, align 8
  ret ptr %5
}

; Function Attrs: mustprogress nounwind uwtable
define linkonce_odr hidden noundef zeroext i1 @_ZNK10ciMetadata9is_loadedEv(ptr noundef nonnull align 8 dereferenceable(24) %0) #1 comdat align 2 {
  %2 = alloca ptr, align 8
  store ptr %0, ptr %2, align 8
  %3 = load ptr, ptr %2, align 8
  %4 = getelementptr inbounds %class.ciMetadata, ptr %3, i32 0, i32 1
  %5 = load ptr, ptr %4, align 8
  %6 = icmp ne ptr %5, null
  br i1 %6, label %12, label %7

7:                                                ; preds = %1
  %8 = load ptr, ptr %3, align 8
  %9 = getelementptr inbounds ptr, ptr %8, i64 4
  %10 = load ptr, ptr %9, align 8
  %11 = call noundef zeroext i1 %10(ptr noundef nonnull align 8 dereferenceable(24) %3)
  br label %12

12:                                               ; preds = %7, %1
  %13 = phi i1 [ true, %1 ], [ %11, %7 ]
  ret i1 %13
}

; Function Attrs: mustprogress nounwind uwtable
define linkonce_odr hidden noundef ptr @_ZNK9TypeCheck5klassEv(ptr noundef nonnull align 8 dereferenceable(132) %0) #1 comdat align 2 {
  %2 = alloca ptr, align 8
  store ptr %0, ptr %2, align 8
  %3 = load ptr, ptr %2, align 8
  %4 = getelementptr inbounds %class.TypeCheck, ptr %3, i32 0, i32 1
  %5 = load ptr, ptr %4, align 8
  ret ptr %5
}

; Function Attrs: mustprogress nounwind uwtable
define hidden void @_ZN13Canonicalizer12do_CheckCastEP9CheckCast(ptr noundef nonnull align 8 dereferenceable(28) %0, ptr noundef %1) unnamed_addr #1 align 2 {
  %3 = alloca ptr, align 8
  %4 = alloca ptr, align 8
  %5 = alloca ptr, align 8
  %6 = alloca ptr, align 8
  %7 = alloca i8, align 1
  store ptr %0, ptr %3, align 8
  store ptr %1, ptr %4, align 8
  %8 = load ptr, ptr %3, align 8
  %9 = load ptr, ptr %4, align 8
  %10 = call noundef ptr @_ZNK9TypeCheck5klassEv(ptr noundef nonnull align 8 dereferenceable(132) %9)
  %11 = call noundef zeroext i1 @_ZNK10ciMetadata9is_loadedEv(ptr noundef nonnull align 8 dereferenceable(24) %10)
  br i1 %11, label %12, label %85

12:                                               ; preds = %2
  %13 = load ptr, ptr %4, align 8
  %14 = call noundef ptr @_ZNK9TypeCheck3objEv(ptr noundef nonnull align 8 dereferenceable(132) %13)
  store ptr %14, ptr %5, align 8
  %15 = load ptr, ptr %5, align 8
  %16 = load ptr, ptr %15, align 8
  %17 = getelementptr inbounds ptr, ptr %16, i64 57
  %18 = load ptr, ptr %17, align 8
  %19 = call noundef ptr %18(ptr noundef nonnull align 8 dereferenceable(96) %15)
  store ptr %19, ptr %6, align 8
  %20 = load ptr, ptr %6, align 8
  %21 = icmp eq ptr %20, null
  br i1 %21, label %22, label %28

22:                                               ; preds = %12
  %23 = load ptr, ptr %5, align 8
  %24 = load ptr, ptr %23, align 8
  %25 = getelementptr inbounds ptr, ptr %24, i64 58
  %26 = load ptr, ptr %25, align 8
  %27 = call noundef ptr %26(ptr noundef nonnull align 8 dereferenceable(96) %23)
  store ptr %27, ptr %6, align 8
  br label %28

28:                                               ; preds = %22, %12
  %29 = load ptr, ptr %6, align 8
  %30 = icmp ne ptr %29, null
  br i1 %30, label %31, label %60

31:                                               ; preds = %28
  %32 = load ptr, ptr %6, align 8
  %33 = call noundef zeroext i1 @_ZNK10ciMetadata9is_loadedEv(ptr noundef nonnull align 8 dereferenceable(24) %32)
  br i1 %33, label %34, label %60

34:                                               ; preds = %31
  %35 = load ptr, ptr %6, align 8
  %36 = load ptr, ptr %35, align 8
  %37 = getelementptr inbounds ptr, ptr %36, i64 10
  %38 = load ptr, ptr %37, align 8
  %39 = call noundef zeroext i1 %38(ptr noundef nonnull align 8 dereferenceable(24) %35)
  br i1 %39, label %40, label %47

40:                                               ; preds = %34
  %41 = load ptr, ptr %6, align 8
  %42 = call noundef ptr @_ZN10ciMetadata17as_instance_klassEv(ptr noundef nonnull align 8 dereferenceable(24) %41)
  %43 = load ptr, ptr %42, align 8
  %44 = getelementptr inbounds ptr, ptr %43, i64 23
  %45 = load ptr, ptr %44, align 8
  %46 = call noundef zeroext i1 %45(ptr noundef nonnull align 8 dereferenceable(144) %42)
  br label %47

47:                                               ; preds = %40, %34
  %48 = phi i1 [ false, %34 ], [ %46, %40 ]
  %49 = zext i1 %48 to i8
  store i8 %49, ptr %7, align 1
  %50 = load i8, ptr %7, align 1
  %51 = trunc i8 %50 to i1
  br i1 %51, label %59, label %52

52:                                               ; preds = %47
  %53 = load ptr, ptr %6, align 8
  %54 = load ptr, ptr %4, align 8
  %55 = call noundef ptr @_ZNK9TypeCheck5klassEv(ptr noundef nonnull align 8 dereferenceable(132) %54)
  %56 = call noundef zeroext i1 @_ZN6ciType13is_subtype_ofEPS_(ptr noundef nonnull align 8 dereferenceable(25) %53, ptr noundef %55)
  br i1 %56, label %57, label %59

57:                                               ; preds = %52
  %58 = load ptr, ptr %5, align 8
  call void @_ZN13Canonicalizer13set_canonicalEP11Instruction(ptr noundef nonnull align 8 dereferenceable(28) %8, ptr noundef %58)
  br label %85

59:                                               ; preds = %52, %47
  br label %60

60:                                               ; preds = %59, %31, %28
  %61 = load ptr, ptr %5, align 8
  %62 = load ptr, ptr %61, align 8
  %63 = getelementptr inbounds ptr, ptr %62, i64 4
  %64 = load ptr, ptr %63, align 8
  %65 = call noundef ptr %64(ptr noundef nonnull align 8 dereferenceable(96) %61)
  %66 = icmp ne ptr %65, null
  br i1 %66, label %67, label %84

67:                                               ; preds = %60
  %68 = load ptr, ptr %5, align 8
  %69 = call noundef ptr @_ZNK11Instruction4typeEv(ptr noundef nonnull align 8 dereferenceable(96) %68)
  %70 = load ptr, ptr %69, align 8
  %71 = getelementptr inbounds ptr, ptr %70, i64 9
  %72 = load ptr, ptr %71, align 8
  %73 = call noundef ptr %72(ptr noundef nonnull align 8 dereferenceable(16) %69)
  %74 = load ptr, ptr %73, align 8
  %75 = getelementptr inbounds ptr, ptr %74, i64 28
  %76 = load ptr, ptr %75, align 8
  %77 = call noundef ptr %76(ptr noundef nonnull align 8 dereferenceable(16) %73)
  %78 = load ptr, ptr %77, align 8
  %79 = getelementptr inbounds ptr, ptr %78, i64 5
  %80 = load ptr, ptr %79, align 8
  %81 = call noundef zeroext i1 %80(ptr noundef nonnull align 8 dereferenceable(40) %77)
  br i1 %81, label %82, label %84

82:                                               ; preds = %67
  %83 = load ptr, ptr %5, align 8
  call void @_ZN13Canonicalizer13set_canonicalEP11Instruction(ptr noundef nonnull align 8 dereferenceable(28) %8, ptr noundef %83)
  br label %84

84:                                               ; preds = %82, %67, %60
  br label %85

85:                                               ; preds = %84, %57, %2
  ret void
}