; Function Attrs: mustprogress nounwind uwtable
define hidden void @_ZN13Canonicalizer12do_CheckCastEP9CheckCast(ptr nocapture noundef nonnull align 8 dereferenceable(28) %0, ptr nocapture noundef readonly %1) unnamed_addr #1 align 2 {
  %3 = getelementptr inbounds i8, ptr %1, i64 104
  %4 = load ptr, ptr %3, align 8
  %5 = getelementptr inbounds i8, ptr %4, i64 16
  %6 = load ptr, ptr %5, align 8
  %.not.i = icmp eq ptr %6, null
  br i1 %.not.i, label %_ZNK10ciMetadata9is_loadedEv.exit, label %_ZNK10ciMetadata9is_loadedEv.exit.thread

_ZNK10ciMetadata9is_loadedEv.exit:                ; preds = %2
  %7 = load ptr, ptr %4, align 8
  %8 = getelementptr inbounds i8, ptr %7, i64 32
  %9 = load ptr, ptr %8, align 8
  %10 = tail call noundef zeroext i1 %9(ptr noundef nonnull align 8 dereferenceable(24) %4) #9
  br i1 %10, label %_ZNK10ciMetadata9is_loadedEv.exit.thread, label %_ZN13Canonicalizer13set_canonicalEP11Instruction.exit

_ZNK10ciMetadata9is_loadedEv.exit.thread:         ; preds = %2, %_ZNK10ciMetadata9is_loadedEv.exit
  %11 = getelementptr inbounds i8, ptr %1, i64 112
  %12 = load ptr, ptr %11, align 8
  %13 = load ptr, ptr %12, align 8
  %14 = getelementptr inbounds i8, ptr %13, i64 456
  %15 = load ptr, ptr %14, align 8
  %16 = tail call noundef ptr %15(ptr noundef nonnull align 8 dereferenceable(96) %12) #9
  %17 = icmp eq ptr %16, null
  br i1 %17, label %18, label %.thread

18:                                               ; preds = %_ZNK10ciMetadata9is_loadedEv.exit.thread
  %19 = load ptr, ptr %12, align 8
  %20 = getelementptr inbounds i8, ptr %19, i64 464
  %21 = load ptr, ptr %20, align 8
  %22 = tail call noundef ptr %21(ptr noundef nonnull align 8 dereferenceable(96) %12) #9
  %.not = icmp eq ptr %22, null
  br i1 %.not, label %43, label %.thread

.thread:                                          ; preds = %_ZNK10ciMetadata9is_loadedEv.exit.thread, %18
  %.025 = phi ptr [ %22, %18 ], [ %16, %_ZNK10ciMetadata9is_loadedEv.exit.thread ]
  %23 = getelementptr inbounds i8, ptr %.025, i64 16
  %24 = load ptr, ptr %23, align 8
  %.not.i18 = icmp eq ptr %24, null
  br i1 %.not.i18, label %_ZNK10ciMetadata9is_loadedEv.exit19, label %_ZNK10ciMetadata9is_loadedEv.exit19.thread

_ZNK10ciMetadata9is_loadedEv.exit19:              ; preds = %.thread
  %25 = load ptr, ptr %.025, align 8
  %26 = getelementptr inbounds i8, ptr %25, i64 32
  %27 = load ptr, ptr %26, align 8
  %28 = tail call noundef zeroext i1 %27(ptr noundef nonnull align 8 dereferenceable(24) %.025) #9
  br i1 %28, label %_ZNK10ciMetadata9is_loadedEv.exit19.thread, label %43

_ZNK10ciMetadata9is_loadedEv.exit19.thread:       ; preds = %.thread, %_ZNK10ciMetadata9is_loadedEv.exit19
  %29 = load ptr, ptr %.025, align 8
  %30 = getelementptr inbounds i8, ptr %29, i64 80
  %31 = load ptr, ptr %30, align 8
  %32 = tail call noundef zeroext i1 %31(ptr noundef nonnull align 8 dereferenceable(24) %.025) #9
  br i1 %32, label %33, label %.critedge

33:                                               ; preds = %_ZNK10ciMetadata9is_loadedEv.exit19.thread
  %34 = load ptr, ptr %.025, align 8
  %35 = getelementptr inbounds i8, ptr %34, i64 184
  %36 = load ptr, ptr %35, align 8
  %37 = tail call noundef zeroext i1 %36(ptr noundef nonnull align 8 dereferenceable(144) %.025) #9
  br i1 %37, label %43, label %.critedge

.critedge:                                        ; preds = %_ZNK10ciMetadata9is_loadedEv.exit19.thread, %33
  %38 = load ptr, ptr %3, align 8
  %39 = tail call noundef zeroext i1 @_ZN6ciType13is_subtype_ofEPS_(ptr noundef nonnull align 8 dereferenceable(25) %.025, ptr noundef %38) #9
  br i1 %39, label %40, label %43

40:                                               ; preds = %.critedge
  %41 = getelementptr inbounds i8, ptr %0, i64 16
  %42 = load ptr, ptr %41, align 8
  %.not.i20 = icmp eq ptr %42, %12
  br i1 %.not.i20, label %_ZN13Canonicalizer13set_canonicalEP11Instruction.exit, label %_ZN13Canonicalizer13set_canonicalEP11Instruction.exit.sink.split

43:                                               ; preds = %33, %.critedge, %_ZNK10ciMetadata9is_loadedEv.exit19, %18
  %44 = load ptr, ptr %12, align 8
  %45 = getelementptr inbounds i8, ptr %44, i64 32
  %46 = load ptr, ptr %45, align 8
  %47 = tail call noundef ptr %46(ptr noundef nonnull align 8 dereferenceable(96) %12) #9
  %.not17 = icmp eq ptr %47, null
  br i1 %.not17, label %_ZN13Canonicalizer13set_canonicalEP11Instruction.exit, label %48

48:                                               ; preds = %43
  %49 = getelementptr inbounds i8, ptr %12, i64 24
  %50 = load ptr, ptr %49, align 8
  %51 = load ptr, ptr %50, align 8
  %52 = getelementptr inbounds i8, ptr %51, i64 72
  %53 = load ptr, ptr %52, align 8
  %54 = tail call noundef ptr %53(ptr noundef nonnull align 8 dereferenceable(16) %50) #9
  %55 = load ptr, ptr %54, align 8
  %56 = getelementptr inbounds i8, ptr %55, i64 224
  %57 = load ptr, ptr %56, align 8
  %58 = tail call noundef ptr %57(ptr noundef nonnull align 8 dereferenceable(16) %54) #9
  %59 = load ptr, ptr %58, align 8
  %60 = getelementptr inbounds i8, ptr %59, i64 40
  %61 = load ptr, ptr %60, align 8
  %62 = tail call noundef zeroext i1 %61(ptr noundef nonnull align 8 dereferenceable(40) %58) #9
  %63 = getelementptr inbounds i8, ptr %0, i64 16
  %64 = load ptr, ptr %63, align 8
  %.not.i21 = icmp ne ptr %64, %12
  %or.cond.not = select i1 %62, i1 %.not.i21, i1 false
  br i1 %or.cond.not, label %_ZN13Canonicalizer13set_canonicalEP11Instruction.exit.sink.split, label %_ZN13Canonicalizer13set_canonicalEP11Instruction.exit

_ZN13Canonicalizer13set_canonicalEP11Instruction.exit.sink.split: ; preds = %48, %40
  %.sink = phi ptr [ %41, %40 ], [ %63, %48 ]
  store ptr %12, ptr %.sink, align 8
  br label %_ZN13Canonicalizer13set_canonicalEP11Instruction.exit

_ZN13Canonicalizer13set_canonicalEP11Instruction.exit: ; preds = %_ZN13Canonicalizer13set_canonicalEP11Instruction.exit.sink.split, %40, %43, %48, %_ZNK10ciMetadata9is_loadedEv.exit
  ret void
}